target datalayout = "e-m:e-p270:32:32-p271:32:32-p272:64:64-i64:64-i128:128-f80:128-n8:16:32:64-S128"
target triple = "x86_64-pc-linux-gnu"

; Function Attrs: nounwind uwtable
define dso_local i32 @git_config_int(ptr noundef %0, ptr noundef %1, ptr noundef %2) #0 {
  %4 = alloca ptr, align 8
  %5 = alloca ptr, align 8
  %6 = alloca ptr, align 8
  %7 = alloca i32, align 4
  store ptr %0, ptr %4, align 8, !tbaa !4
  store ptr %1, ptr %5, align 8, !tbaa !4
  store ptr %2, ptr %6, align 8, !tbaa !22
  call void @llvm.lifetime.start.p0(i64 4, ptr %7) #13
  %8 = load ptr, ptr %5, align 8, !tbaa !4
  %9 = call i32 @git_parse_int(ptr noundef %8, ptr noundef %7)
  %10 = icmp ne i32 %9, 0
  br i1 %10, label %15, label %11

11:                                               ; preds = %3
  %12 = load ptr, ptr %4, align 8, !tbaa !4
  %13 = load ptr, ptr %5, align 8, !tbaa !4
  %14 = load ptr, ptr %6, align 8, !tbaa !22
  call void @die_bad_number(ptr noundef %12, ptr noundef %13, ptr noundef %14) #15
  unreachable

15:                                               ; preds = %3
  %16 = load i32, ptr %7, align 4, !tbaa !13
  call void @llvm.lifetime.end.p0(i64 4, ptr %7) #13
  ret i32 %16
}

; Function Attrs: nounwind uwtable
define dso_local i32 @git_config_bool_or_int(ptr noundef %0, ptr noundef %1, ptr noundef %2, ptr noundef %3) #0 {
  %5 = alloca i32, align 4
  %6 = alloca ptr, align 8
  %7 = alloca ptr, align 8
  %8 = alloca ptr, align 8
  %9 = alloca ptr, align 8
  %10 = alloca i32, align 4
  %11 = alloca i32, align 4
  store ptr %0, ptr %6, align 8, !tbaa !4
  store ptr %1, ptr %7, align 8, !tbaa !4
  store ptr %2, ptr %8, align 8, !tbaa !22
  store ptr %3, ptr %9, align 8, !tbaa !44
  call void @llvm.lifetime.start.p0(i64 4, ptr %10) #13
  %12 = load ptr, ptr %7, align 8, !tbaa !4
  %13 = call i32 @git_parse_maybe_bool_text(ptr noundef %12)
  store i32 %13, ptr %10, align 4, !tbaa !13
  %14 = load i32, ptr %10, align 4, !tbaa !13
  %15 = icmp sle i32 0, %14
  br i1 %15, label %16, label %19

16:                                               ; preds = %4
  %17 = load ptr, ptr %9, align 8, !tbaa !44
  store i32 1, ptr %17, align 4, !tbaa !13
  %18 = load i32, ptr %10, align 4, !tbaa !13
  store i32 %18, ptr %5, align 4
  store i32 1, ptr %11, align 4
  br label %25

19:                                               ; preds = %4
  %20 = load ptr, ptr %9, align 8, !tbaa !44
  store i32 0, ptr %20, align 4, !tbaa !13
  %21 = load ptr, ptr %6, align 8, !tbaa !4
  %22 = load ptr, ptr %7, align 8, !tbaa !4
  %23 = load ptr, ptr %8, align 8, !tbaa !22
  %24 = call i32 @git_config_int(ptr noundef %21, ptr noundef %22, ptr noundef %23)
  store i32 %24, ptr %5, align 4
  store i32 1, ptr %11, align 4
  br label %25

25:                                               ; preds = %19, %16
  call void @llvm.lifetime.end.p0(i64 4, ptr %10) #13
  %26 = load i32, ptr %5, align 4
  ret i32 %26
}