; Function Attrs: nounwind uwtable
define dso_local i32 @git_config_bool_or_int(ptr noundef %0, ptr noundef %1, ptr noundef %2, ptr noundef writeonly captures(none) initializes((0, 4)) %3) local_unnamed_addr #0 {
  %5 = alloca i32, align 4
  %6 = tail call i32 @git_parse_maybe_bool_text(ptr noundef %1) #30
  %7 = icmp sgt i32 %6, -1
  br i1 %7, label %8, label %9

8:                                                ; preds = %4
  store i32 1, ptr %3, align 4, !tbaa !14
  br label %13

9:                                                ; preds = %4
  store i32 0, ptr %3, align 4, !tbaa !14
  call void @llvm.lifetime.start.p0(i64 4, ptr nonnull %5) #30
  %10 = call i32 @git_parse_int(ptr noundef %1, ptr noundef nonnull %5) #30
  %.not.i = icmp eq i32 %10, 0
  br i1 %.not.i, label %11, label %git_config_int.exit

11:                                               ; preds = %9
  call fastcc void @die_bad_number(ptr noundef %0, ptr noundef %1, ptr noundef %2) #32
  unreachable

git_config_int.exit:                              ; preds = %9
  %12 = load i32, ptr %5, align 4, !tbaa !14
  call void @llvm.lifetime.end.p0(i64 4, ptr nonnull %5) #30
  br label %13

13:                                               ; preds = %git_config_int.exit, %8
  %.0 = phi i32 [ %6, %8 ], [ %12, %git_config_int.exit ]
  ret i32 %.0
}